target datalayout = "e-m:e-p270:32:32-p271:32:32-p272:64:64-i64:64-i128:128-f80:128-n8:16:32:64-S128"
target triple = "x86_64-pc-linux-gnu"

%struct.display_data = type { i64, i32, ptr, i8, i32, ptr, ptr, ptr, ptr, ptr, ptr, ptr, ptr }

@.str.19 = private unnamed_addr constant [5 x i8] c"text\00", align 1
@.str.46 = private unnamed_addr constant [28 x i8] c"no model set up for %d(%s)\0A\00", align 1
@.str.47 = private unnamed_addr constant [8 x i8] c"changed\00", align 1
@.str.48 = private unnamed_addr constant [16 x i8] c"focus-out-event\00", align 1

; Function Attrs: nounwind uwtable
define dso_local ptr @create_entry() #0 {
  %1 = alloca ptr, align 8
  call void @llvm.lifetime.start.p0(i64 8, ptr %1) #11
  %2 = call ptr @gtk_entry_new()
  store ptr %2, ptr %1, align 8
  %3 = load ptr, ptr %1, align 8
  %4 = call i64 @gtk_entry_get_type() #12
  %5 = call ptr @g_type_check_instance_cast(ptr noundef %3, i64 noundef %4)
  call void @gtk_entry_set_activates_default(ptr noundef %5, i32 noundef 1)
  %6 = load ptr, ptr %1, align 8
  call void @llvm.lifetime.end.p0(i64 8, ptr %1) #11
  ret ptr %6
}

; Function Attrs: nounwind uwtable
define dso_local void @display_admin_edit(ptr noundef %0, ptr noundef %1, ptr noundef %2, ptr noundef %3, ptr noundef %4, ptr noundef %5, ptr noundef %6, ptr noundef %7, ptr noundef %8) #0 {
  %10 = alloca ptr, align 8
  %11 = alloca ptr, align 8
  %12 = alloca ptr, align 8
  %13 = alloca ptr, align 8
  %14 = alloca ptr, align 8
  %15 = alloca ptr, align 8
  %16 = alloca ptr, align 8
  %17 = alloca ptr, align 8
  %18 = alloca ptr, align 8
  %19 = alloca ptr, align 8
  %20 = alloca ptr, align 8
  %21 = alloca ptr, align 8
  %22 = alloca ptr, align 8
  %23 = alloca i32, align 4
  %24 = alloca ptr, align 8
  store ptr %0, ptr %10, align 8
  store ptr %1, ptr %11, align 8
  store ptr %2, ptr %12, align 8
  store ptr %3, ptr %13, align 8
  store ptr %4, ptr %14, align 8
  store ptr %5, ptr %15, align 8
  store ptr %6, ptr %16, align 8
  store ptr %7, ptr %17, align 8
  store ptr %8, ptr %18, align 8
  call void @llvm.lifetime.start.p0(i64 8, ptr %19) #11
  store ptr null, ptr %19, align 8
  call void @llvm.lifetime.start.p0(i64 8, ptr %20) #11
  store ptr null, ptr %20, align 8
  %25 = load ptr, ptr %15, align 8
  %26 = getelementptr inbounds nuw %struct.display_data, ptr %25, i32 0, i32 4
  %27 = load i32, ptr %26, align 4
  %28 = icmp eq i32 %27, 2
  br i1 %28, label %29, label %77

29:                                               ; preds = %9
  call void @llvm.lifetime.start.p0(i64 8, ptr %21) #11
  store ptr null, ptr %21, align 8
  call void @llvm.lifetime.start.p0(i64 8, ptr %22) #11
  %30 = load ptr, ptr %15, align 8
  %31 = getelementptr inbounds nuw %struct.display_data, ptr %30, i32 0, i32 6
  %32 = load ptr, ptr %31, align 8
  %33 = load ptr, ptr %15, align 8
  %34 = getelementptr inbounds nuw %struct.display_data, ptr %33, i32 0, i32 1
  %35 = load i32, ptr %34, align 8
  %36 = call ptr %32(i32 noundef %35)
  %37 = call i64 @gtk_tree_model_get_type() #12
  %38 = call ptr @g_type_check_instance_cast(ptr noundef %36, i64 noundef %37)
  store ptr %38, ptr %22, align 8
  %39 = load ptr, ptr %22, align 8
  %40 = icmp ne ptr %39, null
  br i1 %40, label %48, label %41

41:                                               ; preds = %29
  %42 = load ptr, ptr %15, align 8
  %43 = getelementptr inbounds nuw %struct.display_data, ptr %42, i32 0, i32 1
  %44 = load i32, ptr %43, align 8
  %45 = load ptr, ptr %15, align 8
  %46 = getelementptr inbounds nuw %struct.display_data, ptr %45, i32 0, i32 2
  %47 = load ptr, ptr %46, align 8
  call void (ptr, ...) @g_print(ptr noundef @.str.46, i32 noundef %44, ptr noundef %47)
  store i32 1, ptr %23, align 4
  br label %74

48:                                               ; preds = %29
  %49 = load ptr, ptr %22, align 8
  %50 = call ptr @gtk_combo_box_new_with_model(ptr noundef %49)
  store ptr %50, ptr %20, align 8
  %51 = load ptr, ptr %22, align 8
  call void @g_object_unref(ptr noundef %51)
  %52 = load ptr, ptr %18, align 8
  %53 = load ptr, ptr %20, align 8
  %54 = call i64 @gtk_combo_box_get_type() #12
  %55 = call ptr @g_type_check_instance_cast(ptr noundef %53, i64 noundef %54)
  %56 = load ptr, ptr %13, align 8
  %57 = load ptr, ptr %14, align 8
  %58 = load ptr, ptr %15, align 8
  %59 = getelementptr inbounds nuw %struct.display_data, ptr %58, i32 0, i32 1
  %60 = load i32, ptr %59, align 8
  call void %52(ptr noundef %55, ptr noundef %56, ptr noundef %57, i32 noundef %60)
  %61 = load ptr, ptr %20, align 8
  %62 = load ptr, ptr %16, align 8
  %63 = load ptr, ptr %11, align 8
  %64 = call i64 @g_signal_connect_data(ptr noundef %61, ptr noundef @.str.47, ptr noundef %62, ptr noundef %63, ptr noundef null, i32 noundef 0)
  %65 = call ptr @gtk_cell_renderer_text_new()
  store ptr %65, ptr %21, align 8
  %66 = load ptr, ptr %20, align 8
  %67 = call i64 @gtk_cell_layout_get_type() #12
  %68 = call ptr @g_type_check_instance_cast(ptr noundef %66, i64 noundef %67)
  %69 = load ptr, ptr %21, align 8
  call void @gtk_cell_layout_pack_start(ptr noundef %68, ptr noundef %69, i32 noundef 1)
  %70 = load ptr, ptr %20, align 8
  %71 = call i64 @gtk_cell_layout_get_type() #12
  %72 = call ptr @g_type_check_instance_cast(ptr noundef %70, i64 noundef %71)
  %73 = load ptr, ptr %21, align 8
  call void @gtk_cell_layout_add_attribute(ptr noundef %72, ptr noundef %73, ptr noundef @.str.19, i32 noundef 0)
  store i32 0, ptr %23, align 4
  br label %74

74:                                               ; preds = %48, %41
  call void @llvm.lifetime.end.p0(i64 8, ptr %22) #11
  call void @llvm.lifetime.end.p0(i64 8, ptr %21) #11
  %75 = load i32, ptr %23, align 4
  switch i32 %75, label %142 [
    i32 0, label %76
  ]

76:                                               ; preds = %74
  br label %117

77:                                               ; preds = %9
  %78 = load ptr, ptr %15, align 8
  %79 = getelementptr inbounds nuw %struct.display_data, ptr %78, i32 0, i32 4
  %80 = load i32, ptr %79, align 4
  %81 = icmp eq i32 %80, 3
  br i1 %81, label %82, label %115

82:                                               ; preds = %77
  call void @llvm.lifetime.start.p0(i64 8, ptr %24) #11
  store ptr null, ptr %24, align 8
  %83 = call ptr @create_entry()
  store ptr %83, ptr %20, align 8
  %84 = load ptr, ptr %13, align 8
  %85 = icmp ne ptr %84, null
  br i1 %85, label %86, label %92

86:                                               ; preds = %82
  %87 = load ptr, ptr %13, align 8
  %88 = load ptr, ptr %14, align 8
  %89 = load ptr, ptr %15, align 8
  %90 = getelementptr inbounds nuw %struct.display_data, ptr %89, i32 0, i32 1
  %91 = load i32, ptr %90, align 8
  call void (ptr, ptr, ...) @gtk_tree_model_get(ptr noundef %87, ptr noundef %88, i32 noundef %91, ptr noundef %24, i32 noundef -1)
  br label %92

92:                                               ; preds = %86, %82
  %93 = load ptr, ptr %20, align 8
  %94 = call i64 @gtk_entry_get_type() #12
  %95 = call ptr @g_type_check_instance_cast(ptr noundef %93, i64 noundef %94)
  %96 = load ptr, ptr %15, align 8
  %97 = getelementptr inbounds nuw %struct.display_data, ptr %96, i32 0, i32 1
  %98 = load i32, ptr %97, align 8
  %99 = add nsw i32 500, %98
  call void @gtk_entry_set_max_length(ptr noundef %95, i32 noundef %99)
  %100 = load ptr, ptr %24, align 8
  %101 = icmp ne ptr %100, null
  br i1 %101, label %102, label %108

102:                                              ; preds = %92
  %103 = load ptr, ptr %20, align 8
  %104 = call i64 @gtk_entry_get_type() #12
  %105 = call ptr @g_type_check_instance_cast(ptr noundef %103, i64 noundef %104)
  %106 = load ptr, ptr %24, align 8
  call void @gtk_entry_set_text(ptr noundef %105, ptr noundef %106)
  %107 = load ptr, ptr %24, align 8
  call void @g_free(ptr noundef %107)
  br label %108

108:                                              ; preds = %102, %92
  %109 = load ptr, ptr %20, align 8
  %110 = load ptr, ptr %17, align 8
  %111 = load ptr, ptr %11, align 8
  %112 = call i64 @g_signal_connect_data(ptr noundef %109, ptr noundef @.str.48, ptr noundef %110, ptr noundef %111, ptr noundef null, i32 noundef 0)
  %113 = load ptr, ptr %20, align 8
  %114 = call i64 @g_signal_connect_data(ptr noundef %113, ptr noundef @.str.47, ptr noundef @entry_changed, ptr noundef null, ptr noundef null, i32 noundef 0)
  call void @llvm.lifetime.end.p0(i64 8, ptr %24) #11
  br label %116

115:                                              ; preds = %77
  store i32 1, ptr %23, align 4
  br label %142

116:                                              ; preds = %108
  br label %117

117:                                              ; preds = %116, %76
  %118 = load ptr, ptr %15, align 8
  %119 = getelementptr inbounds nuw %struct.display_data, ptr %118, i32 0, i32 2
  %120 = load ptr, ptr %119, align 8
  %121 = call ptr @gtk_label_new(ptr noundef %120)
  store ptr %121, ptr %19, align 8
  %122 = load ptr, ptr %19, align 8
  %123 = call i64 @gtk_misc_get_type() #12
  %124 = call ptr @g_type_check_instance_cast(ptr noundef %122, i64 noundef %123)
  call void @gtk_misc_set_alignment(ptr noundef %124, float noundef 0.000000e+00, float noundef 5.000000e-01)
  %125 = load ptr, ptr %10, align 8
  %126 = load ptr, ptr %19, align 8
  %127 = load ptr, ptr %12, align 8
  %128 = load i32, ptr %127, align 4
  %129 = load ptr, ptr %12, align 8
  %130 = load i32, ptr %129, align 4
  %131 = add nsw i32 %130, 1
  call void @gtk_table_attach(ptr noundef %125, ptr noundef %126, i32 noundef 0, i32 noundef 1, i32 noundef %128, i32 noundef %131, i32 noundef 5, i32 noundef 2, i32 noundef 0, i32 noundef 0)
  %132 = load ptr, ptr %10, align 8
  %133 = load ptr, ptr %20, align 8
  %134 = load ptr, ptr %12, align 8
  %135 = load i32, ptr %134, align 4
  %136 = load ptr, ptr %12, align 8
  %137 = load i32, ptr %136, align 4
  %138 = add nsw i32 %137, 1
  call void @gtk_table_attach(ptr noundef %132, ptr noundef %133, i32 noundef 1, i32 noundef 2, i32 noundef %135, i32 noundef %138, i32 noundef 4, i32 noundef 2, i32 noundef 0, i32 noundef 0)
  %139 = load ptr, ptr %12, align 8
  %140 = load i32, ptr %139, align 4
  %141 = add nsw i32 %140, 1
  store i32 %141, ptr %139, align 4
  store i32 0, ptr %23, align 4
  br label %142

142:                                              ; preds = %117, %115, %74
  call void @llvm.lifetime.end.p0(i64 8, ptr %20) #11
  call void @llvm.lifetime.end.p0(i64 8, ptr %19) #11
  %143 = load i32, ptr %23, align 4
  switch i32 %143, label %145 [
    i32 0, label %144
    i32 1, label %144
  ]

144:                                              ; preds = %142, %142
  ret void

145:                                              ; preds = %142
  unreachable
}