; Function Attrs: nounwind uwtable
define dso_local void @display_admin_edit(ptr noundef %0, ptr noundef %1, ptr noundef captures(none) %2, ptr noundef %3, ptr noundef %4, ptr noundef readonly captures(none) %5, ptr noundef %6, ptr noundef %7, ptr noundef readonly captures(none) %8) local_unnamed_addr #2 {
  %10 = alloca ptr, align 8
  %11 = getelementptr inbounds nuw i8, ptr %5, i64 28
  %12 = load i32, ptr %11, align 4
  switch i32 %12, label %66 [
    i32 2, label %13
    i32 3, label %34
  ]

13:                                               ; preds = %9
  %14 = getelementptr inbounds nuw i8, ptr %5, i64 40
  %15 = load ptr, ptr %14, align 8
  %16 = getelementptr inbounds nuw i8, ptr %5, i64 8
  %17 = load i32, ptr %16, align 8
  %18 = tail call ptr %15(i32 noundef %17) #16
  %19 = tail call i64 @gtk_tree_model_get_type() #17
  %20 = tail call ptr @g_type_check_instance_cast(ptr noundef %18, i64 noundef %19) #16
  %.not48.not = icmp eq ptr %20, null
  br i1 %.not48.not, label %.thread, label %24

.thread:                                          ; preds = %13
  %21 = load i32, ptr %16, align 8
  %22 = getelementptr inbounds nuw i8, ptr %5, i64 16
  %23 = load ptr, ptr %22, align 8
  tail call void (ptr, ...) @g_print(ptr noundef nonnull @.str.46, i32 noundef %21, ptr noundef %23) #16
  br label %66

24:                                               ; preds = %13
  %25 = tail call ptr @gtk_combo_box_new_with_model(ptr noundef nonnull %20) #16
  tail call void @g_object_unref(ptr noundef nonnull %20) #16
  %26 = tail call i64 @gtk_combo_box_get_type() #17
  %27 = tail call ptr @g_type_check_instance_cast(ptr noundef %25, i64 noundef %26) #16
  %28 = load i32, ptr %16, align 8
  tail call void %8(ptr noundef %27, ptr noundef %3, ptr noundef %4, i32 noundef %28) #16
  %29 = tail call i64 @g_signal_connect_data(ptr noundef %25, ptr noundef nonnull @.str.47, ptr noundef %6, ptr noundef %1, ptr noundef null, i32 noundef 0) #16
  %30 = tail call ptr @gtk_cell_renderer_text_new() #16
  %31 = tail call i64 @gtk_cell_layout_get_type() #17
  %32 = tail call ptr @g_type_check_instance_cast(ptr noundef %25, i64 noundef %31) #16
  tail call void @gtk_cell_layout_pack_start(ptr noundef %32, ptr noundef %30, i32 noundef 1) #16
  %33 = tail call ptr @g_type_check_instance_cast(ptr noundef %25, i64 noundef %31) #16
  tail call void @gtk_cell_layout_add_attribute(ptr noundef %33, ptr noundef %30, ptr noundef nonnull @.str.19, i32 noundef 0) #16
  br label %54

34:                                               ; preds = %9
  call void @llvm.lifetime.start.p0(i64 8, ptr nonnull %10) #16
  store ptr null, ptr %10, align 8
  %35 = tail call ptr @gtk_entry_new() #16
  %36 = tail call i64 @gtk_entry_get_type() #17
  %37 = tail call ptr @g_type_check_instance_cast(ptr noundef %35, i64 noundef %36) #16
  tail call void @gtk_entry_set_activates_default(ptr noundef %37, i32 noundef 1) #16
  %.not = icmp eq ptr %3, null
  br i1 %.not, label %41, label %38

38:                                               ; preds = %34
  %39 = getelementptr inbounds nuw i8, ptr %5, i64 8
  %40 = load i32, ptr %39, align 8
  call void (ptr, ptr, ...) @gtk_tree_model_get(ptr noundef nonnull %3, ptr noundef %4, i32 noundef %40, ptr noundef nonnull %10, i32 noundef -1) #16
  br label %41

41:                                               ; preds = %38, %34
  %42 = call ptr @g_type_check_instance_cast(ptr noundef %35, i64 noundef %36) #16
  %43 = getelementptr inbounds nuw i8, ptr %5, i64 8
  %44 = load i32, ptr %43, align 8
  %45 = add nsw i32 %44, 500
  call void @gtk_entry_set_max_length(ptr noundef %42, i32 noundef %45) #16
  %46 = load ptr, ptr %10, align 8
  %.not47 = icmp eq ptr %46, null
  br i1 %.not47, label %51, label %47

47:                                               ; preds = %41
  %48 = call ptr @g_type_check_instance_cast(ptr noundef %35, i64 noundef %36) #16
  %49 = load ptr, ptr %10, align 8
  call void @gtk_entry_set_text(ptr noundef %48, ptr noundef %49) #16
  %50 = load ptr, ptr %10, align 8
  call void @g_free(ptr noundef %50) #16
  br label %51

51:                                               ; preds = %47, %41
  %52 = call i64 @g_signal_connect_data(ptr noundef %35, ptr noundef nonnull @.str.48, ptr noundef %7, ptr noundef %1, ptr noundef null, i32 noundef 0) #16
  %53 = call i64 @g_signal_connect_data(ptr noundef %35, ptr noundef nonnull @.str.47, ptr noundef nonnull @entry_changed, ptr noundef null, ptr noundef null, i32 noundef 0) #16
  call void @llvm.lifetime.end.p0(i64 8, ptr nonnull %10) #16
  br label %54

54:                                               ; preds = %24, %51
  %.1 = phi ptr [ %25, %24 ], [ %35, %51 ]
  %55 = getelementptr inbounds nuw i8, ptr %5, i64 16
  %56 = load ptr, ptr %55, align 8
  %57 = call ptr @gtk_label_new(ptr noundef %56) #16
  %58 = tail call i64 @gtk_misc_get_type() #17
  %59 = call ptr @g_type_check_instance_cast(ptr noundef %57, i64 noundef %58) #16
  call void @gtk_misc_set_alignment(ptr noundef %59, float noundef 0.000000e+00, float noundef 5.000000e-01) #16
  %60 = load i32, ptr %2, align 4
  %61 = add nsw i32 %60, 1
  call void @gtk_table_attach(ptr noundef %0, ptr noundef %57, i32 noundef 0, i32 noundef 1, i32 noundef %60, i32 noundef %61, i32 noundef 5, i32 noundef 2, i32 noundef 0, i32 noundef 0) #16
  %62 = load i32, ptr %2, align 4
  %63 = add nsw i32 %62, 1
  call void @gtk_table_attach(ptr noundef %0, ptr noundef %.1, i32 noundef 1, i32 noundef 2, i32 noundef %62, i32 noundef %63, i32 noundef 4, i32 noundef 2, i32 noundef 0, i32 noundef 0) #16
  %64 = load i32, ptr %2, align 4
  %65 = add nsw i32 %64, 1
  store i32 %65, ptr %2, align 4
  br label %66

66:                                               ; preds = %.thread, %9, %54
  ret void
}